; Function Attrs: nounwind uwtable
define hidden void @zim_DOM_Document_createAttribute(ptr nocapture noundef readonly %0, ptr noundef %1) local_unnamed_addr #0 {
  %3 = alloca i64, align 8
  %4 = alloca ptr, align 8
  %5 = getelementptr inbounds i8, ptr %0, i64 44
  %6 = load i32, ptr %5, align 4
  %7 = call i32 (i32, ptr, ...) @zend_parse_parameters(i32 noundef %6, ptr noundef nonnull @.str.3, ptr noundef nonnull %4, ptr noundef nonnull %3) #10
  %8 = icmp eq i32 %7, -1
  br i1 %8, label %9, label %12

9:                                                ; preds = %2
  %10 = load ptr, ptr getelementptr inbounds (%struct._zend_executor_globals, ptr @executor_globals, i64 0, i32 50), align 8
  %11 = icmp ne ptr %10, null
  call void @llvm.assume(i1 %11)
  br label %43

12:                                               ; preds = %2
  %13 = getelementptr inbounds i8, ptr %0, i64 32
  %14 = load ptr, ptr %13, align 8
  %15 = getelementptr inbounds i8, ptr %14, i64 -24
  %16 = load ptr, ptr %15, align 8
  %17 = icmp eq ptr %16, null
  br i1 %17, label %18, label %26

18:                                               ; preds = %12
  %19 = getelementptr inbounds i8, ptr %14, i64 16
  %20 = load ptr, ptr %19, align 8
  %21 = getelementptr inbounds i8, ptr %20, i64 8
  %22 = load ptr, ptr %21, align 8
  %23 = getelementptr inbounds i8, ptr %22, i64 24
  call void (ptr, ptr, ...) @zend_throw_error(ptr noundef null, ptr noundef nonnull @.str.2, ptr noundef nonnull %23) #10
  %24 = load ptr, ptr getelementptr inbounds (%struct._zend_executor_globals, ptr @executor_globals, i64 0, i32 50), align 8
  %25 = icmp ne ptr %24, null
  call void @llvm.assume(i1 %25)
  br label %43

26:                                               ; preds = %12
  %27 = load ptr, ptr %16, align 8
  %28 = load ptr, ptr %4, align 8
  %29 = call i32 @xmlValidateName(ptr noundef %28, i32 noundef 0) #10
  %.not = icmp eq i32 %29, 0
  br i1 %.not, label %35, label %30

30:                                               ; preds = %26
  %31 = getelementptr inbounds i8, ptr %14, i64 -16
  %32 = load ptr, ptr %31, align 8
  %33 = call i32 @dom_get_strict_error(ptr noundef %32) #10
  call void @php_dom_throw_error(i32 noundef 5, i32 noundef %33) #10
  %34 = getelementptr inbounds i8, ptr %1, i64 8
  store i32 2, ptr %34, align 8
  br label %43

35:                                               ; preds = %26
  %36 = load ptr, ptr %4, align 8
  %37 = call ptr @xmlNewDocProp(ptr noundef %27, ptr noundef %36, ptr noundef null) #10
  %.not14 = icmp eq ptr %37, null
  br i1 %.not14, label %38, label %41

38:                                               ; preds = %35
  call void @php_dom_throw_error(i32 noundef 11, i32 noundef 1) #10
  %39 = load ptr, ptr getelementptr inbounds (%struct._zend_executor_globals, ptr @executor_globals, i64 0, i32 50), align 8
  %40 = icmp ne ptr %39, null
  call void @llvm.assume(i1 %40)
  br label %43

41:                                               ; preds = %35
  %42 = call zeroext i1 @php_dom_create_object(ptr noundef nonnull %37, ptr noundef %1, ptr noundef nonnull %15) #10
  br label %43

43:                                               ; preds = %41, %38, %30, %18, %9
  ret void
}